; Function Attrs: null_pointer_is_valid sspstrong uwtable
define internal i32 @dissect_zb_direct_tunneling(ptr noundef %0, ptr noundef %1, ptr noundef %2, ptr noundef %3) #0 {
  %5 = alloca ptr, align 8
  %6 = alloca ptr, align 8
  store ptr %0, ptr %5, align 8
  store ptr %2, ptr %6, align 8
  %7 = call fastcc i32 @dissect_zb_direct_common(ptr noundef nonnull %5, ptr noundef %1, ptr noundef nonnull %6, ptr noundef nonnull @serv_tunnel_uuid, ptr noundef nonnull @char_tunnel_uuid)
  %8 = load ptr, ptr %6, align 8
  %9 = load i32, ptr @hf_zb_direct_char_tunneling, align 4
  %10 = load ptr, ptr %5, align 8
  %11 = tail call ptr @proto_tree_add_item(ptr noundef %8, i32 noundef %9, ptr noundef %10, i32 noundef %7, i32 noundef 0, i32 noundef 0)
  %.not.i = icmp eq ptr %11, null
  br i1 %.not.i, label %proto_item_set_generated.exit, label %12

12:                                               ; preds = %4
  %13 = getelementptr inbounds nuw i8, ptr %11, i64 40
  %14 = load ptr, ptr %13, align 8
  %.not5.i = icmp eq ptr %14, null
  br i1 %.not5.i, label %proto_item_set_generated.exit, label %15

15:                                               ; preds = %12
  %16 = getelementptr inbounds nuw i8, ptr %14, i64 28
  %17 = load i32, ptr %16, align 4
  %18 = or i32 %17, 2
  store i32 %18, ptr %16, align 4
  br label %proto_item_set_generated.exit

proto_item_set_generated.exit:                    ; preds = %4, %12, %15
  %19 = tail call i32 @dissect_zbee_tlvs(ptr noundef %10, ptr noundef %1, ptr noundef %8, i32 noundef %7, ptr noundef %3, i8 noundef zeroext 4, i32 noundef 8)
  ret i32 %19
}